	.file	"rt_gdh.h"
	.section	.rodata
	.align 4
	.type	_ZL13pwr_cNAttrRef, @object
	.size	_ZL13pwr_cNAttrRef, 24
_ZL13pwr_cNAttrRef:
	.zero	24
	.align 4
	.type	_ZL9pwr_cNOid, @object
	.size	_ZL9pwr_cNOid, 8
_ZL9pwr_cNOid:
	.zero	8
	.align 4
	.type	_ZL11pwr_cNObjid, @object
	.size	_ZL11pwr_cNObjid, 8
_ZL11pwr_cNObjid:
	.zero	8
	.align 4
	.type	_ZL11pwr_cNRefId, @object
	.size	_ZL11pwr_cNRefId, 8
_ZL11pwr_cNRefId:
	.zero	8
	.align 4
	.type	_ZL9pwr_cNOix, @object
	.size	_ZL9pwr_cNOix, 4
_ZL9pwr_cNOix:
	.zero	4
	.align 4
	.type	_ZL14pwr_cNObjectIx, @object
	.size	_ZL14pwr_cNObjectIx, 4
_ZL14pwr_cNObjectIx:
	.zero	4
	.align 4
	.type	_ZL13pwr_cNClassId, @object
	.size	_ZL13pwr_cNClassId, 4
_ZL13pwr_cNClassId:
	.zero	4
	.align 4
	.type	_ZL12pwr_cNTypeId, @object
	.size	_ZL12pwr_cNTypeId, 4
_ZL12pwr_cNTypeId:
	.zero	4
	.align 4
	.type	_ZL12pwr_cNCastId, @object
	.size	_ZL12pwr_cNCastId, 4
_ZL12pwr_cNCastId:
	.zero	4
	.align 4
	.type	_ZL17pwr_cNDisableAttr, @object
	.size	_ZL17pwr_cNDisableAttr, 4
_ZL17pwr_cNDisableAttr:
	.zero	4
	.align 4
	.type	_ZL14pwr_cNVolumeId, @object
	.size	_ZL14pwr_cNVolumeId, 4
_ZL14pwr_cNVolumeId:
	.zero	4
	.align 4
	.type	_ZL12pwr_cNNodeId, @object
	.size	_ZL12pwr_cNNodeId, 4
_ZL12pwr_cNNodeId:
	.zero	4
	.align 4
	.type	_ZL9pwr_cNCid, @object
	.size	_ZL9pwr_cNCid, 4
_ZL9pwr_cNCid:
	.zero	4
	.align 4
	.type	_ZL9pwr_cNTid, @object
	.size	_ZL9pwr_cNTid, 4
_ZL9pwr_cNTid:
	.zero	4
	.align 4
	.type	_ZL9pwr_cNVid, @object
	.size	_ZL9pwr_cNVid, 4
_ZL9pwr_cNVid:
	.zero	4
	.align 4
	.type	_ZL9pwr_cNNid, @object
	.size	_ZL9pwr_cNNid, 4
_ZL9pwr_cNNid:
	.zero	4
	.align 4
	.type	_ZL12pwr_cNStatus, @object
	.size	_ZL12pwr_cNStatus, 4
_ZL12pwr_cNStatus:
	.zero	4
	.align 4
	.type	_ZL10pwr_cNTime, @object
	.size	_ZL10pwr_cNTime, 16
_ZL10pwr_cNTime:
	.zero	16
	.align 4
	.type	_ZL15pwr_cNDeltaTime, @object
	.size	_ZL15pwr_cNDeltaTime, 16
_ZL15pwr_cNDeltaTime:
	.zero	16
	.align 4
	.type	_ZL10qcom_cNQid, @object
	.size	_ZL10qcom_cNQid, 8
_ZL10qcom_cNQid:
	.zero	8
	.align 4
	.type	_ZL15qcom_cQnetEvent, @object
	.size	_ZL15qcom_cQnetEvent, 8
_ZL15qcom_cQnetEvent:
	.long	-2147483548
	.long	0
	.align 4
	.type	_ZL16qcom_cQapplEvent, @object
	.size	_ZL16qcom_cQapplEvent, 8
_ZL16qcom_cQapplEvent:
	.long	-2147483547
	.long	0
	.align 4
	.type	_ZL20qcom_cQmhAllHandlers, @object
	.size	_ZL20qcom_cQmhAllHandlers, 8
_ZL20qcom_cQmhAllHandlers:
	.long	-2147483546
	.long	0
	.align 4
	.type	_ZL20qcom_cQmhAllOutunits, @object
	.size	_ZL20qcom_cQmhAllOutunits, 8
_ZL20qcom_cQmhAllOutunits:
	.long	-2147483545
	.long	0
	.align 4
	.type	_ZL15qcom_cQhdServer, @object
	.size	_ZL15qcom_cQhdServer, 8
_ZL15qcom_cQhdServer:
	.long	-2147483544
	.long	0
	.align 4
	.type	_ZL15qcom_cQhdClient, @object
	.size	_ZL15qcom_cQhdClient, 8
_ZL15qcom_cQhdClient:
	.long	-2147483543
	.long	0
	.align 4
	.type	_ZL11qcom_cQnacp, @object
	.size	_ZL11qcom_cQnacp, 8
_ZL11qcom_cQnacp:
	.long	-2147483542
	.long	0
	.align 4
	.type	_ZL10qcom_cQini, @object
	.size	_ZL10qcom_cQini, 8
_ZL10qcom_cQini:
	.long	-2147483541
	.long	0
	.align 4
	.type	_ZL10qcom_cNAid, @object
	.size	_ZL10qcom_cNAid, 8
_ZL10qcom_cNAid:
	.zero	8
	.ident	"GCC: (GNU) 4.7.4 20130416 for GNAT GPL 2013 (20130314)"
	.section	.note.GNU-stack,"",@progbits
